target datalayout = "e-m:e-p270:32:32-p271:32:32-p272:64:64-i64:64-i128:128-f80:128-n8:16:32:64-S128"
target triple = "x86_64-pc-linux-gnu"

%struct._zend_array = type { %struct._zend_refcounted_h, %union.anon.17, i32, %union.anon.19, i32, i32, i32, i32, i64, ptr }
%struct._zend_refcounted_h = type { i32, %union.anon.16 }
%union.anon.16 = type { i32 }
%union.anon.17 = type { i32 }
%union.anon.19 = type { ptr }
%struct._zval_struct = type { %union._zend_value, %union.anon.21, %union.anon.24 }
%union._zend_value = type { i64 }
%union.anon.21 = type { i32 }
%union.anon.24 = type { i32 }
%struct._ir_ctx = type { ptr, i32, i32, i32, i32, i32, i32, i32, i32, i32, i32, %struct._ir_insn, ptr, ptr, ptr, i32, i32, i32, ptr, ptr, ptr, ptr, ptr, i32, i32, i64, i32, i32, i32, i64, i32, i32, i32, i32, ptr, ptr, ptr, ptr, ptr, ptr, %union.anon.13, ptr, i32, i32, i32, i64, i32, i32, i32, ptr, ptr, ptr, ptr, %struct._ir_strtab, [61 x i32], [14 x i32] }
%struct._ir_insn = type { %struct.anon, %union.anon.5 }
%struct.anon = type { %union.anon, %union.anon.4 }
%union.anon = type { i32 }
%union.anon.4 = type { i32 }
%union.anon.5 = type { %union._ir_val }
%union._ir_val = type { double }
%union.anon.13 = type { ptr }
%struct._ir_strtab = type { ptr, i32, i32, i32, i32, ptr, i32, i32 }
%struct._zend_jit_ctx = type { %struct._ir_ctx, ptr, i8, i8, i8, i32, i32, i32, i32, i32, ptr, ptr, ptr, ptr, ptr, ptr, ptr, ptr, ptr, i32, ptr, i32, %struct._zend_array, [32 x i32] }
%struct.anon.0 = type { %union.anon.1, %union.anon.3 }
%union.anon.1 = type { i16 }
%union.anon.3 = type { i16 }
%struct._zend_ssa = type { %struct._zend_cfg, i32, i32, ptr, ptr, ptr, ptr }
%struct._zend_cfg = type { i32, i32, ptr, ptr, ptr, i32 }
%struct._zend_basic_block = type { ptr, i32, i32, i32, i32, i32, i32, i32, i32, i32, i32, i32, [2 x i32] }
%struct.anon.2 = type { i8, i8 }

; Function Attrs: nounwind uwtable
define internal i32 @jit_CONST_ADDR(ptr noundef %0, i64 noundef %1) #0 {
  %3 = alloca ptr, align 8
  %4 = alloca i32, align 4
  %5 = alloca ptr, align 8
  %6 = alloca i64, align 8
  %7 = alloca i32, align 4
  %8 = alloca ptr, align 8
  %9 = alloca ptr, align 8
  store ptr %0, ptr %5, align 8
  store i64 %1, ptr %6, align 8
  %10 = load i64, ptr %6, align 8
  %11 = icmp eq i64 %10, 0
  br i1 %11, label %12, label %13

12:                                               ; preds = %2
  store i32 -1, ptr %4, align 4
  br label %58

13:                                               ; preds = %2
  %14 = load ptr, ptr %5, align 8
  %15 = getelementptr inbounds %struct._zend_jit_ctx, ptr %14, i32 0, i32 22
  %16 = load i64, ptr %6, align 8
  %17 = call ptr @zend_hash_index_lookup(ptr noundef %15, i64 noundef %16)
  store ptr %17, ptr %8, align 8
  %18 = load ptr, ptr %8, align 8
  store ptr %18, ptr %3, align 8
  %19 = load ptr, ptr %3, align 8
  %20 = getelementptr inbounds %struct._zval_struct, ptr %19, i32 0, i32 1
  %21 = load i8, ptr %20, align 8
  %22 = zext i8 %21 to i32
  %23 = icmp eq i32 %22, 4
  br i1 %23, label %24, label %42

24:                                               ; preds = %13
  %25 = load ptr, ptr %8, align 8
  %26 = getelementptr inbounds %struct._zval_struct, ptr %25, i32 0, i32 0
  %27 = load i64, ptr %26, align 8
  %28 = trunc i64 %27 to i32
  store i32 %28, ptr %7, align 4
  %29 = load ptr, ptr %5, align 8
  %30 = getelementptr inbounds %struct._zend_jit_ctx, ptr %29, i32 0, i32 0
  %31 = getelementptr inbounds %struct._ir_ctx, ptr %30, i32 0, i32 0
  %32 = load ptr, ptr %31, align 8
  %33 = load i32, ptr %7, align 4
  %34 = sext i32 %33 to i64
  %35 = getelementptr inbounds %struct._ir_insn, ptr %32, i64 %34
  %36 = getelementptr inbounds %struct._ir_insn, ptr %35, i32 0, i32 0
  %37 = getelementptr inbounds %struct.anon, ptr %36, i32 0, i32 0
  %38 = getelementptr inbounds %struct.anon.0, ptr %37, i32 0, i32 0
  %39 = load i16, ptr %38, align 8
  %40 = zext i16 %39 to i32
  %41 = icmp eq i32 %40, 1542
  call void @llvm.assume(i1 %41)
  br label %56

42:                                               ; preds = %13
  %43 = load ptr, ptr %5, align 8
  %44 = getelementptr inbounds %struct._zend_jit_ctx, ptr %43, i32 0, i32 0
  %45 = load i64, ptr %6, align 8
  %46 = call i32 @ir_unique_const_addr(ptr noundef %44, i64 noundef %45)
  store i32 %46, ptr %7, align 4
  br label %47

47:                                               ; preds = %42
  %48 = load ptr, ptr %8, align 8
  store ptr %48, ptr %9, align 8
  %49 = load i32, ptr %7, align 4
  %50 = sext i32 %49 to i64
  %51 = load ptr, ptr %9, align 8
  %52 = getelementptr inbounds %struct._zval_struct, ptr %51, i32 0, i32 0
  store i64 %50, ptr %52, align 8
  %53 = load ptr, ptr %9, align 8
  %54 = getelementptr inbounds %struct._zval_struct, ptr %53, i32 0, i32 1
  store i32 4, ptr %54, align 8
  br label %55

55:                                               ; preds = %47
  br label %56

56:                                               ; preds = %55, %24
  %57 = load i32, ptr %7, align 4
  store i32 %57, ptr %4, align 4
  br label %58

58:                                               ; preds = %56, %12
  %59 = load i32, ptr %4, align 4
  ret i32 %59
}

; Function Attrs: nounwind uwtable
define internal i32 @jit_ADD_OFFSET(ptr noundef %0, i32 noundef %1, i64 noundef %2) #0 {
  %4 = alloca ptr, align 8
  %5 = alloca i32, align 4
  %6 = alloca i64, align 8
  store ptr %0, ptr %4, align 8
  store i32 %1, ptr %5, align 4
  store i64 %2, ptr %6, align 8
  %7 = load i64, ptr %6, align 8
  %8 = icmp ne i64 %7, 0
  br i1 %8, label %9, label %17

9:                                                ; preds = %3
  %10 = load ptr, ptr %4, align 8
  %11 = getelementptr inbounds %struct._zend_jit_ctx, ptr %10, i32 0, i32 0
  %12 = load i32, ptr %5, align 4
  %13 = load ptr, ptr %4, align 8
  %14 = load i64, ptr %6, align 8
  %15 = call i32 @jit_CONST_ADDR(ptr noundef %13, i64 noundef %14)
  %16 = call i32 @ir_fold2(ptr noundef %11, i32 noundef 1560, i32 noundef %12, i32 noundef %15)
  store i32 %16, ptr %5, align 4
  br label %17

17:                                               ; preds = %9, %3
  %18 = load i32, ptr %5, align 4
  ret i32 %18
}

; Function Attrs: nounwind uwtable
define internal i32 @jit_FP(ptr noundef %0) #0 {
  %2 = alloca ptr, align 8
  %3 = alloca ptr, align 8
  %4 = alloca i32, align 4
  store ptr %0, ptr %2, align 8
  %5 = load ptr, ptr %2, align 8
  %6 = getelementptr inbounds %struct._zend_jit_ctx, ptr %5, i32 0, i32 0
  %7 = getelementptr inbounds %struct._ir_ctx, ptr %6, i32 0, i32 40
  %8 = load i32, ptr %7, align 8
  %9 = icmp ne i32 %8, 0
  call void @llvm.assume(i1 %9)
  %10 = load ptr, ptr %2, align 8
  %11 = getelementptr inbounds %struct._zend_jit_ctx, ptr %10, i32 0, i32 7
  %12 = load i32, ptr %11, align 4
  %13 = icmp eq i32 %12, 0
  br i1 %13, label %14, label %20

14:                                               ; preds = %1
  %15 = load ptr, ptr %2, align 8
  %16 = getelementptr inbounds %struct._zend_jit_ctx, ptr %15, i32 0, i32 0
  %17 = call i32 @_ir_RLOAD(ptr noundef %16, i32 noundef 6, i32 noundef 14)
  %18 = load ptr, ptr %2, align 8
  %19 = getelementptr inbounds %struct._zend_jit_ctx, ptr %18, i32 0, i32 7
  store i32 %17, ptr %19, align 4
  br label %69

20:                                               ; preds = %1
  %21 = load ptr, ptr %2, align 8
  %22 = getelementptr inbounds %struct._zend_jit_ctx, ptr %21, i32 0, i32 0
  %23 = getelementptr inbounds %struct._ir_ctx, ptr %22, i32 0, i32 40
  %24 = load i32, ptr %23, align 8
  store i32 %24, ptr %4, align 4
  br label %25

25:                                               ; preds = %63, %20
  %26 = load i32, ptr %4, align 4
  %27 = load ptr, ptr %2, align 8
  %28 = getelementptr inbounds %struct._zend_jit_ctx, ptr %27, i32 0, i32 7
  %29 = load i32, ptr %28, align 4
  %30 = icmp eq i32 %26, %29
  br i1 %30, label %31, label %32

31:                                               ; preds = %25
  br label %68

32:                                               ; preds = %25
  %33 = load ptr, ptr %2, align 8
  %34 = getelementptr inbounds %struct._zend_jit_ctx, ptr %33, i32 0, i32 0
  %35 = getelementptr inbounds %struct._ir_ctx, ptr %34, i32 0, i32 0
  %36 = load ptr, ptr %35, align 8
  %37 = load i32, ptr %4, align 4
  %38 = sext i32 %37 to i64
  %39 = getelementptr inbounds %struct._ir_insn, ptr %36, i64 %38
  store ptr %39, ptr %3, align 8
  %40 = load ptr, ptr %3, align 8
  %41 = getelementptr inbounds %struct._ir_insn, ptr %40, i32 0, i32 0
  %42 = getelementptr inbounds %struct.anon, ptr %41, i32 0, i32 0
  %43 = getelementptr inbounds %struct.anon.0, ptr %42, i32 0, i32 0
  %44 = getelementptr inbounds %struct.anon.2, ptr %43, i32 0, i32 0
  %45 = load i8, ptr %44, align 8
  %46 = zext i8 %45 to i32
  %47 = icmp sge i32 %46, 89
  br i1 %47, label %57, label %48

48:                                               ; preds = %32
  %49 = load ptr, ptr %3, align 8
  %50 = getelementptr inbounds %struct._ir_insn, ptr %49, i32 0, i32 0
  %51 = getelementptr inbounds %struct.anon, ptr %50, i32 0, i32 0
  %52 = getelementptr inbounds %struct.anon.0, ptr %51, i32 0, i32 0
  %53 = getelementptr inbounds %struct.anon.2, ptr %52, i32 0, i32 0
  %54 = load i8, ptr %53, align 8
  %55 = zext i8 %54 to i32
  %56 = icmp eq i32 %55, 69
  br i1 %56, label %57, label %63

57:                                               ; preds = %48, %32
  %58 = load ptr, ptr %2, align 8
  %59 = getelementptr inbounds %struct._zend_jit_ctx, ptr %58, i32 0, i32 0
  %60 = call i32 @_ir_RLOAD(ptr noundef %59, i32 noundef 6, i32 noundef 14)
  %61 = load ptr, ptr %2, align 8
  %62 = getelementptr inbounds %struct._zend_jit_ctx, ptr %61, i32 0, i32 7
  store i32 %60, ptr %62, align 4
  br label %68

63:                                               ; preds = %48
  %64 = load ptr, ptr %3, align 8
  %65 = getelementptr inbounds %struct._ir_insn, ptr %64, i32 0, i32 0
  %66 = getelementptr inbounds %struct.anon, ptr %65, i32 0, i32 1
  %67 = load i32, ptr %66, align 4
  store i32 %67, ptr %4, align 4
  br label %25

68:                                               ; preds = %57, %31
  br label %69

69:                                               ; preds = %68, %14
  %70 = load ptr, ptr %2, align 8
  %71 = getelementptr inbounds %struct._zend_jit_ctx, ptr %70, i32 0, i32 7
  %72 = load i32, ptr %71, align 4
  ret i32 %72
}

; Function Attrs: nounwind uwtable
define internal i32 @jit_IF_ex(ptr noundef %0, i32 noundef %1, i32 noundef %2) #0 {
  %4 = alloca ptr, align 8
  %5 = alloca i32, align 4
  %6 = alloca i32, align 4
  %7 = alloca i32, align 4
  store ptr %0, ptr %4, align 8
  store i32 %1, ptr %5, align 4
  store i32 %2, ptr %6, align 4
  %8 = load ptr, ptr %4, align 8
  %9 = getelementptr inbounds %struct._zend_jit_ctx, ptr %8, i32 0, i32 0
  %10 = load i32, ptr %5, align 4
  %11 = call i32 @_ir_IF(ptr noundef %9, i32 noundef %10)
  store i32 %11, ptr %7, align 4
  %12 = load ptr, ptr %4, align 8
  %13 = getelementptr inbounds %struct._zend_jit_ctx, ptr %12, i32 0, i32 0
  %14 = load i32, ptr %7, align 4
  %15 = load i32, ptr %6, align 4
  call void @ir_set_op(ptr noundef %13, i32 noundef %14, i32 noundef 3, i32 noundef %15)
  %16 = load i32, ptr %7, align 4
  ret i32 %16
}

; Function Attrs: nounwind uwtable
define internal i32 @jit_CMP_IP(ptr noundef %0, i32 noundef %1, ptr noundef %2) #0 {
  %4 = alloca ptr, align 8
  %5 = alloca i32, align 4
  %6 = alloca ptr, align 8
  %7 = alloca i32, align 4
  store ptr %0, ptr %4, align 8
  store i32 %1, ptr %5, align 4
  store ptr %2, ptr %6, align 8
  %8 = load ptr, ptr %4, align 8
  %9 = getelementptr inbounds %struct._zend_jit_ctx, ptr %8, i32 0, i32 0
  %10 = load ptr, ptr %4, align 8
  %11 = load ptr, ptr %4, align 8
  %12 = call i32 @jit_FP(ptr noundef %11)
  %13 = call i32 @jit_ADD_OFFSET(ptr noundef %10, i32 noundef %12, i64 noundef 0)
  %14 = call i32 @_ir_LOAD(ptr noundef %9, i32 noundef 4, i32 noundef %13)
  store i32 %14, ptr %7, align 4
  %15 = load ptr, ptr %4, align 8
  %16 = getelementptr inbounds %struct._zend_jit_ctx, ptr %15, i32 0, i32 0
  %17 = load i32, ptr %5, align 4
  %18 = trunc i32 %17 to i16
  %19 = zext i16 %18 to i32
  %20 = or i32 %19, 256
  %21 = load i32, ptr %7, align 4
  %22 = load ptr, ptr %4, align 8
  %23 = getelementptr inbounds %struct._zend_jit_ctx, ptr %22, i32 0, i32 0
  %24 = load ptr, ptr %6, align 8
  %25 = ptrtoint ptr %24 to i64
  %26 = trunc i64 %25 to i32
  %27 = call i32 @ir_const_u32(ptr noundef %23, i32 noundef %26)
  %28 = call i32 @ir_fold2(ptr noundef %16, i32 noundef %20, i32 noundef %21, i32 noundef %27)
  store i32 %28, ptr %7, align 4
  %29 = load i32, ptr %7, align 4
  ret i32 %29
}

; Function Attrs: nounwind uwtable
define internal void @zend_jit_set_last_valid_opline(ptr noundef %0, ptr noundef %1) #0 {
  %3 = alloca ptr, align 8
  %4 = alloca ptr, align 8
  store ptr %0, ptr %3, align 8
  store ptr %1, ptr %4, align 8
  %5 = load ptr, ptr %3, align 8
  %6 = getelementptr inbounds %struct._zend_jit_ctx, ptr %5, i32 0, i32 4
  %7 = load i8, ptr %6, align 2
  %8 = trunc i8 %7 to i1
  br i1 %8, label %15, label %9

9:                                                ; preds = %2
  %10 = load ptr, ptr %3, align 8
  %11 = getelementptr inbounds %struct._zend_jit_ctx, ptr %10, i32 0, i32 3
  store i8 1, ptr %11, align 1
  %12 = load ptr, ptr %4, align 8
  %13 = load ptr, ptr %3, align 8
  %14 = getelementptr inbounds %struct._zend_jit_ctx, ptr %13, i32 0, i32 1
  store ptr %12, ptr %14, align 8
  br label %15

15:                                               ; preds = %9, %2
  ret void
}

; Function Attrs: nounwind uwtable
define internal i32 @zend_jit_cond_jmp(ptr noundef %0, ptr noundef %1, i32 noundef %2) #0 {
  %4 = alloca i32, align 4
  %5 = alloca ptr, align 8
  %6 = alloca ptr, align 8
  %7 = alloca i32, align 4
  %8 = alloca i32, align 4
  %9 = alloca ptr, align 8
  store ptr %0, ptr %5, align 8
  store ptr %1, ptr %6, align 8
  store i32 %2, ptr %7, align 4
  %10 = load ptr, ptr %5, align 8
  %11 = getelementptr inbounds %struct._zend_jit_ctx, ptr %10, i32 0, i32 6
  %12 = load i32, ptr %11, align 8
  %13 = icmp sge i32 %12, 0
  call void @llvm.assume(i1 %13)
  %14 = load ptr, ptr %5, align 8
  %15 = getelementptr inbounds %struct._zend_jit_ctx, ptr %14, i32 0, i32 12
  %16 = load ptr, ptr %15, align 8
  %17 = getelementptr inbounds %struct._zend_ssa, ptr %16, i32 0, i32 0
  %18 = getelementptr inbounds %struct._zend_cfg, ptr %17, i32 0, i32 2
  %19 = load ptr, ptr %18, align 8
  %20 = load ptr, ptr %5, align 8
  %21 = getelementptr inbounds %struct._zend_jit_ctx, ptr %20, i32 0, i32 6
  %22 = load i32, ptr %21, align 8
  %23 = sext i32 %22 to i64
  %24 = getelementptr inbounds %struct._zend_basic_block, ptr %19, i64 %23
  store ptr %24, ptr %9, align 8
  %25 = load ptr, ptr %9, align 8
  %26 = getelementptr inbounds %struct._zend_basic_block, ptr %25, i32 0, i32 4
  %27 = load i32, ptr %26, align 4
  %28 = icmp eq i32 %27, 2
  call void @llvm.assume(i1 %28)
  %29 = load ptr, ptr %9, align 8
  %30 = getelementptr inbounds %struct._zend_basic_block, ptr %29, i32 0, i32 0
  %31 = load ptr, ptr %30, align 8
  %32 = getelementptr inbounds i32, ptr %31, i64 0
  %33 = load i32, ptr %32, align 4
  %34 = load ptr, ptr %9, align 8
  %35 = getelementptr inbounds %struct._zend_basic_block, ptr %34, i32 0, i32 0
  %36 = load ptr, ptr %35, align 8
  %37 = getelementptr inbounds i32, ptr %36, i64 1
  %38 = load i32, ptr %37, align 4
  %39 = icmp eq i32 %33, %38
  br i1 %39, label %40, label %57

40:                                               ; preds = %3
  %41 = load ptr, ptr %5, align 8
  %42 = load ptr, ptr %9, align 8
  %43 = getelementptr inbounds %struct._zend_basic_block, ptr %42, i32 0, i32 0
  %44 = load ptr, ptr %43, align 8
  %45 = getelementptr inbounds i32, ptr %44, i64 0
  %46 = load i32, ptr %45, align 4
  %47 = load ptr, ptr %5, align 8
  %48 = getelementptr inbounds %struct._zend_jit_ctx, ptr %47, i32 0, i32 6
  %49 = load i32, ptr %48, align 8
  %50 = load ptr, ptr %5, align 8
  %51 = getelementptr inbounds %struct._zend_jit_ctx, ptr %50, i32 0, i32 0
  %52 = call i32 @_ir_END(ptr noundef %51)
  call void @_zend_jit_add_predecessor_ref(ptr noundef %41, i32 noundef %46, i32 noundef %49, i32 noundef %52)
  %53 = load ptr, ptr %5, align 8
  %54 = getelementptr inbounds %struct._zend_jit_ctx, ptr %53, i32 0, i32 6
  store i32 -1, ptr %54, align 8
  %55 = load ptr, ptr %5, align 8
  %56 = load ptr, ptr %6, align 8
  call void @zend_jit_set_last_valid_opline(ptr noundef %55, ptr noundef %56)
  store i32 1, ptr %4, align 4
  br label %88

57:                                               ; preds = %3
  %58 = load ptr, ptr %5, align 8
  %59 = load ptr, ptr %5, align 8
  %60 = load ptr, ptr %6, align 8
  %61 = call i32 @jit_CMP_IP(ptr noundef %59, i32 noundef 15, ptr noundef %60)
  %62 = load i32, ptr %7, align 4
  %63 = call i32 @jit_IF_ex(ptr noundef %58, i32 noundef %61, i32 noundef %62)
  store i32 %63, ptr %8, align 4
  %64 = load ptr, ptr %5, align 8
  %65 = load ptr, ptr %9, align 8
  %66 = getelementptr inbounds %struct._zend_basic_block, ptr %65, i32 0, i32 0
  %67 = load ptr, ptr %66, align 8
  %68 = getelementptr inbounds i32, ptr %67, i64 0
  %69 = load i32, ptr %68, align 4
  %70 = load ptr, ptr %5, align 8
  %71 = getelementptr inbounds %struct._zend_jit_ctx, ptr %70, i32 0, i32 6
  %72 = load i32, ptr %71, align 8
  %73 = load i32, ptr %8, align 4
  call void @_zend_jit_add_predecessor_ref(ptr noundef %64, i32 noundef %69, i32 noundef %72, i32 noundef %73)
  %74 = load ptr, ptr %5, align 8
  %75 = load ptr, ptr %9, align 8
  %76 = getelementptr inbounds %struct._zend_basic_block, ptr %75, i32 0, i32 0
  %77 = load ptr, ptr %76, align 8
  %78 = getelementptr inbounds i32, ptr %77, i64 1
  %79 = load i32, ptr %78, align 4
  %80 = load ptr, ptr %5, align 8
  %81 = getelementptr inbounds %struct._zend_jit_ctx, ptr %80, i32 0, i32 6
  %82 = load i32, ptr %81, align 8
  %83 = load i32, ptr %8, align 4
  call void @_zend_jit_add_predecessor_ref(ptr noundef %74, i32 noundef %79, i32 noundef %82, i32 noundef %83)
  %84 = load ptr, ptr %5, align 8
  %85 = getelementptr inbounds %struct._zend_jit_ctx, ptr %84, i32 0, i32 6
  store i32 -1, ptr %85, align 8
  %86 = load ptr, ptr %5, align 8
  %87 = load ptr, ptr %6, align 8
  call void @zend_jit_set_last_valid_opline(ptr noundef %86, ptr noundef %87)
  store i32 1, ptr %4, align 4
  br label %88

88:                                               ; preds = %57, %40
  %89 = load i32, ptr %4, align 4
  ret i32 %89
}