; Function Attrs: nounwind uwtable
define internal fastcc void @zend_jit_cond_jmp(ptr noundef %0, ptr noundef %1, i32 noundef %2) unnamed_addr #0 {
  %4 = getelementptr inbounds i8, ptr %0, i64 696
  %5 = load i32, ptr %4, align 8
  %6 = icmp sgt i32 %5, -1
  tail call void @llvm.assume(i1 %6)
  %7 = getelementptr inbounds i8, ptr %0, i64 728
  %8 = load ptr, ptr %7, align 8
  %9 = getelementptr inbounds i8, ptr %8, i64 8
  %10 = load ptr, ptr %9, align 8
  %11 = zext nneg i32 %5 to i64
  %12 = getelementptr inbounds %struct._zend_basic_block, ptr %10, i64 %11
  %13 = getelementptr inbounds i8, ptr %12, i64 20
  %14 = load i32, ptr %13, align 4
  %15 = icmp eq i32 %14, 2
  tail call void @llvm.assume(i1 %15)
  %16 = load ptr, ptr %12, align 8
  %17 = load i32, ptr %16, align 4
  %18 = getelementptr inbounds i8, ptr %16, i64 4
  %19 = load i32, ptr %18, align 4
  %20 = icmp eq i32 %17, %19
  br i1 %20, label %21, label %26

21:                                               ; preds = %3
  %22 = tail call i32 @_ir_END(ptr noundef nonnull %0) #32
  tail call fastcc void @_zend_jit_add_predecessor_ref(ptr noundef nonnull %0, i32 noundef %17, i32 noundef %5, i32 noundef %22)
  store i32 -1, ptr %4, align 8
  %23 = getelementptr inbounds i8, ptr %0, i64 690
  %24 = load i8, ptr %23, align 2
  %25 = and i8 %24, 1
  %.not.i = icmp eq i8 %25, 0
  br i1 %.not.i, label %zend_jit_set_last_valid_opline.exit.sink.split, label %zend_jit_set_last_valid_opline.exit

26:                                               ; preds = %3
  %27 = getelementptr inbounds i8, ptr %0, i64 248
  %28 = load i32, ptr %27, align 8
  %29 = icmp ne i32 %28, 0
  tail call void @llvm.assume(i1 %29)
  %30 = getelementptr inbounds i8, ptr %0, i64 700
  %31 = load i32, ptr %30, align 4
  %32 = icmp eq i32 %31, 0
  br i1 %32, label %.loopexit.sink.split.i.i, label %.preheader.i.i

.preheader.i.i:                                   ; preds = %26
  %33 = icmp eq i32 %28, %31
  br i1 %33, label %jit_CMP_IP.exit, label %.lr.ph.i.i

.lr.ph.i.i:                                       ; preds = %.preheader.i.i
  %34 = load ptr, ptr %0, align 8
  br label %35

35:                                               ; preds = %41, %.lr.ph.i.i
  %.015.i.i = phi i32 [ %28, %.lr.ph.i.i ], [ %43, %41 ]
  %36 = sext i32 %.015.i.i to i64
  %37 = getelementptr inbounds %struct._ir_insn, ptr %34, i64 %36
  %38 = load i8, ptr %37, align 8
  %39 = icmp ugt i8 %38, 88
  %40 = icmp eq i8 %38, 69
  %or.cond.i.i = or i1 %39, %40
  br i1 %or.cond.i.i, label %.loopexit.sink.split.i.i, label %41

41:                                               ; preds = %35
  %42 = getelementptr inbounds i8, ptr %37, i64 4
  %43 = load i32, ptr %42, align 4
  %44 = icmp eq i32 %43, %31
  br i1 %44, label %jit_CMP_IP.exit, label %35

.loopexit.sink.split.i.i:                         ; preds = %35, %26
  %45 = tail call i32 @_ir_RLOAD(ptr noundef nonnull %0, i32 noundef 6, i32 noundef 14) #32
  store i32 %45, ptr %30, align 4
  br label %jit_CMP_IP.exit

jit_CMP_IP.exit:                                  ; preds = %41, %.preheader.i.i, %.loopexit.sink.split.i.i
  %46 = phi i32 [ %28, %.preheader.i.i ], [ %45, %.loopexit.sink.split.i.i ], [ %31, %41 ]
  %47 = tail call i32 @_ir_LOAD(ptr noundef %0, i32 noundef 4, i32 noundef %46) #32
  %48 = ptrtoint ptr %1 to i64
  %49 = trunc i64 %48 to i32
  %50 = tail call i32 @ir_const_u32(ptr noundef %0, i32 noundef %49) #32
  %51 = tail call i32 @ir_fold2(ptr noundef %0, i32 noundef 271, i32 noundef %47, i32 noundef %50) #32
  %52 = tail call i32 @_ir_IF(ptr noundef %0, i32 noundef %51) #32
  tail call void @ir_set_op(ptr noundef %0, i32 noundef %52, i32 noundef 3, i32 noundef %2) #32
  %53 = load ptr, ptr %12, align 8
  %54 = load i32, ptr %53, align 4
  %55 = load i32, ptr %4, align 8
  tail call fastcc void @_zend_jit_add_predecessor_ref(ptr noundef %0, i32 noundef %54, i32 noundef %55, i32 noundef %52)
  %56 = load ptr, ptr %12, align 8
  %57 = getelementptr inbounds i8, ptr %56, i64 4
  %58 = load i32, ptr %57, align 4
  %59 = load i32, ptr %4, align 8
  tail call fastcc void @_zend_jit_add_predecessor_ref(ptr noundef %0, i32 noundef %58, i32 noundef %59, i32 noundef %52)
  store i32 -1, ptr %4, align 8
  %60 = getelementptr inbounds i8, ptr %0, i64 690
  %61 = load i8, ptr %60, align 2
  %62 = and i8 %61, 1
  %.not.i28 = icmp eq i8 %62, 0
  br i1 %.not.i28, label %zend_jit_set_last_valid_opline.exit.sink.split, label %zend_jit_set_last_valid_opline.exit

zend_jit_set_last_valid_opline.exit.sink.split:   ; preds = %jit_CMP_IP.exit, %21
  %63 = getelementptr inbounds i8, ptr %0, i64 689
  store i8 1, ptr %63, align 1
  %64 = getelementptr inbounds i8, ptr %0, i64 680
  store ptr %1, ptr %64, align 8
  br label %zend_jit_set_last_valid_opline.exit

zend_jit_set_last_valid_opline.exit:              ; preds = %zend_jit_set_last_valid_opline.exit.sink.split, %jit_CMP_IP.exit, %21
  ret void
}